target datalayout = "e-m:e-p270:32:32-p271:32:32-p272:64:64-i64:64-i128:128-f80:128-n8:16:32:64-S128"
target triple = "x86_64-pc-linux-gnu"

%struct._e_guid_t = type { i32, i16, i16, [8 x i8] }
%struct._dcerpc_info = type { ptr, i32, i64, i8, i8, i8, i32, i32, i32, i32, i32, i32, i32, i32, ptr, ptr, ptr, ptr, %struct.anon }
%struct.anon = type { i8, ptr, ptr, ptr, i8 }
%struct._dcerpc_call_value = type { %struct._e_guid_t, i16, %struct._e_guid_t, i16, i32, %struct.nstime_t, i32, i32, ptr, ptr, ptr, i32 }
%struct.nstime_t = type { i64, i32 }

@ett_wkssvc_wkssvc_NetrWkstaUserInfo0 = internal global i32 0, align 4
@hf_wkssvc_wkssvc_NetrWkstaUserInfo0_user_name = internal global i32 0, align 4
@.str.601 = private unnamed_addr constant [30 x i8] c"Pointer to User Name (uint16)\00", align 1

; Function Attrs: null_pointer_is_valid sspstrong uwtable
define internal i32 @wkssvc_dissect_element_NetrWkstaUserInfo0_user_name(ptr noundef %0, i32 noundef %1, ptr noundef %2, ptr noundef %3, ptr noundef %4, ptr noundef %5) #0 {
  %7 = alloca ptr, align 8
  %8 = alloca i32, align 4
  %9 = alloca ptr, align 8
  %10 = alloca ptr, align 8
  %11 = alloca ptr, align 8
  %12 = alloca ptr, align 8
  store ptr %0, ptr %7, align 8
  store i32 %1, ptr %8, align 4
  store ptr %2, ptr %9, align 8
  store ptr %3, ptr %10, align 8
  store ptr %4, ptr %11, align 8
  store ptr %5, ptr %12, align 8
  %13 = load ptr, ptr %7, align 8
  %14 = load i32, ptr %8, align 4
  %15 = load ptr, ptr %9, align 8
  %16 = load ptr, ptr %10, align 8
  %17 = load ptr, ptr %11, align 8
  %18 = load ptr, ptr %12, align 8
  %19 = load i32, ptr @hf_wkssvc_wkssvc_NetrWkstaUserInfo0_user_name, align 4
  %20 = call i32 @dissect_ndr_embedded_pointer(ptr noundef %13, i32 noundef %14, ptr noundef %15, ptr noundef %16, ptr noundef %17, ptr noundef %18, ptr noundef @wkssvc_dissect_element_NetrWkstaUserInfo0_user_name_, i32 noundef 2, ptr noundef @.str.601, i32 noundef %19)
  store i32 %20, ptr %8, align 4
  %21 = load i32, ptr %8, align 4
  ret i32 %21
}

; Function Attrs: null_pointer_is_valid sspstrong uwtable
define hidden i32 @wkssvc_dissect_struct_NetrWkstaUserInfo0(ptr noundef %0, i32 noundef %1, ptr noundef %2, ptr noundef %3, ptr noundef %4, ptr noundef %5, i32 noundef %6, i32 noundef %7) #0 {
  %9 = alloca ptr, align 8
  %10 = alloca i32, align 4
  %11 = alloca ptr, align 8
  %12 = alloca ptr, align 8
  %13 = alloca ptr, align 8
  %14 = alloca ptr, align 8
  %15 = alloca i32, align 4
  %16 = alloca i32, align 4
  %17 = alloca ptr, align 8
  %18 = alloca ptr, align 8
  %19 = alloca i32, align 4
  store ptr %0, ptr %9, align 8
  store i32 %1, ptr %10, align 4
  store ptr %2, ptr %11, align 8
  store ptr %3, ptr %12, align 8
  store ptr %4, ptr %13, align 8
  store ptr %5, ptr %14, align 8
  store i32 %6, ptr %15, align 4
  store i32 %7, ptr %16, align 4
  call void @llvm.lifetime.start.p0(i64 8, ptr %17) #3
  store ptr null, ptr %17, align 8
  call void @llvm.lifetime.start.p0(i64 8, ptr %18) #3
  store ptr null, ptr %18, align 8
  call void @llvm.lifetime.start.p0(i64 4, ptr %19) #3
  %20 = load ptr, ptr %13, align 8
  %21 = getelementptr inbounds nuw %struct._dcerpc_info, ptr %20, i32 0, i32 14
  %22 = load ptr, ptr %21, align 8
  %23 = getelementptr inbounds nuw %struct._dcerpc_call_value, ptr %22, i32 0, i32 11
  %24 = load i32, ptr %23, align 8
  %25 = and i32 %24, 1
  %26 = icmp ne i32 %25, 0
  br i1 %26, label %27, label %42

27:                                               ; preds = %8
  %28 = load ptr, ptr %13, align 8
  %29 = getelementptr inbounds nuw %struct._dcerpc_info, ptr %28, i32 0, i32 4
  %30 = load i8, ptr %29, align 1, !range !6, !noundef !7
  %31 = trunc i8 %30 to i1
  br i1 %31, label %41, label %32

32:                                               ; preds = %27
  %33 = load i32, ptr %10, align 4
  %34 = and i32 %33, 7
  %35 = icmp ne i32 %34, 0
  br i1 %35, label %36, label %40

36:                                               ; preds = %32
  %37 = load i32, ptr %10, align 4
  %38 = and i32 %37, -8
  %39 = add i32 %38, 8
  store i32 %39, ptr %10, align 4
  br label %40

40:                                               ; preds = %36, %32
  br label %41

41:                                               ; preds = %40, %27
  br label %57

42:                                               ; preds = %8
  %43 = load ptr, ptr %13, align 8
  %44 = getelementptr inbounds nuw %struct._dcerpc_info, ptr %43, i32 0, i32 4
  %45 = load i8, ptr %44, align 1, !range !6, !noundef !7
  %46 = trunc i8 %45 to i1
  br i1 %46, label %56, label %47

47:                                               ; preds = %42
  %48 = load i32, ptr %10, align 4
  %49 = and i32 %48, 3
  %50 = icmp ne i32 %49, 0
  br i1 %50, label %51, label %55

51:                                               ; preds = %47
  %52 = load i32, ptr %10, align 4
  %53 = and i32 %52, -4
  %54 = add i32 %53, 4
  store i32 %54, ptr %10, align 4
  br label %55

55:                                               ; preds = %51, %47
  br label %56

56:                                               ; preds = %55, %42
  br label %57

57:                                               ; preds = %56, %41
  %58 = load i32, ptr %10, align 4
  store i32 %58, ptr %19, align 4
  %59 = load ptr, ptr %12, align 8
  %60 = icmp ne ptr %59, null
  br i1 %60, label %61, label %70

61:                                               ; preds = %57
  %62 = load ptr, ptr %12, align 8
  %63 = load i32, ptr %15, align 4
  %64 = load ptr, ptr %9, align 8
  %65 = load i32, ptr %10, align 4
  %66 = call ptr @proto_tree_add_item(ptr noundef %62, i32 noundef %63, ptr noundef %64, i32 noundef %65, i32 noundef -1, i32 noundef 0)
  store ptr %66, ptr %17, align 8
  %67 = load ptr, ptr %17, align 8
  %68 = load i32, ptr @ett_wkssvc_wkssvc_NetrWkstaUserInfo0, align 4
  %69 = call ptr @proto_item_add_subtree(ptr noundef %67, i32 noundef %68)
  store ptr %69, ptr %18, align 8
  br label %70

70:                                               ; preds = %61, %57
  %71 = load ptr, ptr %9, align 8
  %72 = load i32, ptr %10, align 4
  %73 = load ptr, ptr %11, align 8
  %74 = load ptr, ptr %18, align 8
  %75 = load ptr, ptr %13, align 8
  %76 = load ptr, ptr %14, align 8
  %77 = call i32 @wkssvc_dissect_element_NetrWkstaUserInfo0_user_name(ptr noundef %71, i32 noundef %72, ptr noundef %73, ptr noundef %74, ptr noundef %75, ptr noundef %76)
  store i32 %77, ptr %10, align 4
  %78 = load ptr, ptr %17, align 8
  %79 = load i32, ptr %10, align 4
  %80 = load i32, ptr %19, align 4
  %81 = sub i32 %79, %80
  call void @proto_item_set_len(ptr noundef %78, i32 noundef %81)
  %82 = load ptr, ptr %13, align 8
  %83 = getelementptr inbounds nuw %struct._dcerpc_info, ptr %82, i32 0, i32 14
  %84 = load ptr, ptr %83, align 8
  %85 = getelementptr inbounds nuw %struct._dcerpc_call_value, ptr %84, i32 0, i32 11
  %86 = load i32, ptr %85, align 8
  %87 = and i32 %86, 1
  %88 = icmp ne i32 %87, 0
  br i1 %88, label %89, label %128

89:                                               ; preds = %70
  %90 = load ptr, ptr %13, align 8
  %91 = getelementptr inbounds nuw %struct._dcerpc_info, ptr %90, i32 0, i32 14
  %92 = load ptr, ptr %91, align 8
  %93 = getelementptr inbounds nuw %struct._dcerpc_call_value, ptr %92, i32 0, i32 11
  %94 = load i32, ptr %93, align 8
  %95 = and i32 %94, 1
  %96 = icmp ne i32 %95, 0
  br i1 %96, label %97, label %112

97:                                               ; preds = %89
  %98 = load ptr, ptr %13, align 8
  %99 = getelementptr inbounds nuw %struct._dcerpc_info, ptr %98, i32 0, i32 4
  %100 = load i8, ptr %99, align 1, !range !6, !noundef !7
  %101 = trunc i8 %100 to i1
  br i1 %101, label %111, label %102

102:                                              ; preds = %97
  %103 = load i32, ptr %10, align 4
  %104 = and i32 %103, 7
  %105 = icmp ne i32 %104, 0
  br i1 %105, label %106, label %110

106:                                              ; preds = %102
  %107 = load i32, ptr %10, align 4
  %108 = and i32 %107, -8
  %109 = add i32 %108, 8
  store i32 %109, ptr %10, align 4
  br label %110

110:                                              ; preds = %106, %102
  br label %111

111:                                              ; preds = %110, %97
  br label %127

112:                                              ; preds = %89
  %113 = load ptr, ptr %13, align 8
  %114 = getelementptr inbounds nuw %struct._dcerpc_info, ptr %113, i32 0, i32 4
  %115 = load i8, ptr %114, align 1, !range !6, !noundef !7
  %116 = trunc i8 %115 to i1
  br i1 %116, label %126, label %117

117:                                              ; preds = %112
  %118 = load i32, ptr %10, align 4
  %119 = and i32 %118, 3
  %120 = icmp ne i32 %119, 0
  br i1 %120, label %121, label %125

121:                                              ; preds = %117
  %122 = load i32, ptr %10, align 4
  %123 = and i32 %122, -4
  %124 = add i32 %123, 4
  store i32 %124, ptr %10, align 4
  br label %125

125:                                              ; preds = %121, %117
  br label %126

126:                                              ; preds = %125, %112
  br label %127

127:                                              ; preds = %126, %111
  br label %128

128:                                              ; preds = %127, %70
  %129 = load i32, ptr %10, align 4
  call void @llvm.lifetime.end.p0(i64 4, ptr %19) #3
  call void @llvm.lifetime.end.p0(i64 8, ptr %18) #3
  call void @llvm.lifetime.end.p0(i64 8, ptr %17) #3
  ret i32 %129
}